target datalayout = "e-m:e-p270:32:32-p271:32:32-p272:64:64-i64:64-i128:128-f80:128-n8:16:32:64-S128"
target triple = "x86_64-pc-linux-gnu"

; Function Attrs: nounwind uwtable
define dso_local void @clar__assert(i32 noundef %0, ptr noundef %1, ptr noundef %2, i64 noundef %3, ptr noundef %4, ptr noundef %5, i32 noundef %6) #0 {
  %8 = alloca i32, align 4
  %9 = alloca ptr, align 8
  %10 = alloca ptr, align 8
  %11 = alloca i64, align 8
  %12 = alloca ptr, align 8
  %13 = alloca ptr, align 8
  %14 = alloca i32, align 4
  store i32 %0, ptr %8, align 4, !tbaa !16
  store ptr %1, ptr %9, align 8, !tbaa !20
  store ptr %2, ptr %10, align 8, !tbaa !20
  store i64 %3, ptr %11, align 8, !tbaa !26
  store ptr %4, ptr %12, align 8, !tbaa !20
  store ptr %5, ptr %13, align 8, !tbaa !20
  store i32 %6, ptr %14, align 4, !tbaa !16
  %15 = load i32, ptr %8, align 4, !tbaa !16
  %16 = icmp ne i32 %15, 0
  br i1 %16, label %17, label %18

17:                                               ; preds = %7
  br label %25

18:                                               ; preds = %7
  %19 = load ptr, ptr %9, align 8, !tbaa !20
  %20 = load ptr, ptr %10, align 8, !tbaa !20
  %21 = load i64, ptr %11, align 8, !tbaa !26
  %22 = load ptr, ptr %12, align 8, !tbaa !20
  %23 = load ptr, ptr %13, align 8, !tbaa !20
  %24 = load i32, ptr %14, align 4, !tbaa !16
  call void @clar__fail(ptr noundef %19, ptr noundef %20, i64 noundef %21, ptr noundef %22, ptr noundef %23, i32 noundef %24)
  br label %25

25:                                               ; preds = %18, %17
  ret void
}