; Function Attrs: nounwind uwtable
define dso_local void @clar__assert(i32 noundef %0, ptr noundef %1, ptr noundef %2, i64 noundef %3, ptr noundef %4, ptr noundef %5, i32 noundef %6) local_unnamed_addr #1 {
  %.not = icmp eq i32 %0, 0
  br i1 %.not, label %8, label %9

8:                                                ; preds = %7
  tail call void @clar__fail(ptr noundef %1, ptr noundef %2, i64 noundef %3, ptr noundef %4, ptr noundef %5, i32 noundef %6)
  br label %9

9:                                                ; preds = %7, %8
  ret void
}